target datalayout = "e-m:e-p270:32:32-p271:32:32-p272:64:64-i64:64-i128:128-f80:128-n8:16:32:64-S128"
target triple = "x86_64-pc-linux-gnu"

%struct.Agobj_s = type { %struct.Agtag_s, ptr }
%struct.Agtag_s = type { i32, i64 }
%struct.Agraphinfo_t = type { %struct.Agrec_s, ptr, ptr, %struct.boxf, [4 x %struct.pointf_s], i8, i8, i8, i8, i32, double, double, i16, ptr, ptr, ptr, ptr, i32, ptr, ptr, ptr, ptr, i16, i16, i32, ptr, ptr, ptr, ptr, ptr, i32, ptr, ptr, %struct.nlist_t, ptr, ptr, i32, i32, i8, i8, i32, i32, i32, ptr, ptr, ptr, ptr, i8, i8, i8, i8, i8 }
%struct.Agrec_s = type { ptr, ptr }
%struct.boxf = type { %struct.pointf_s, %struct.pointf_s }
%struct.pointf_s = type { double, double }
%struct.nlist_t = type { ptr, i64 }
%struct.Agedgeinfo_t = type { %struct.Agrec_s, ptr, %struct.port, %struct.port, ptr, ptr, ptr, ptr, i8, i8, i8, i8, i8, ptr, ptr, double, double, %struct.Ppoly_t, i8, i8, i16, i32, i32, i32, i16, i32, ptr }
%struct.port = type { %struct.pointf_s, double, ptr, i8, i8, i8, i8, i8, i8, ptr }
%struct.Ppoly_t = type { ptr, i64 }
%struct.Agraph_s = type { %struct.Agobj_s, %struct.Agdesc_s, %struct.dtlink_s_, %struct.dtlink_s_, ptr, ptr, ptr, ptr, ptr, ptr, ptr, ptr, ptr }
%struct.Agdesc_s = type { i8, [3 x i8] }
%struct.dtlink_s_ = type { ptr, %union.anon }
%union.anon = type { ptr }

@Ndim = external global i16, align 2
@N_pos = internal global ptr null, align 8
@.str.24 = private unnamed_addr constant [4 x i8] c"pos\00", align 1
@.str.32 = private unnamed_addr constant [6 x i8] c"dimen\00", align 1
@.str.33 = private unnamed_addr constant [4 x i8] c"dim\00", align 1
@.str.34 = private unnamed_addr constant [4 x i8] c"pin\00", align 1
@.str.35 = private unnamed_addr constant [13 x i8] c"Agedgeinfo_t\00", align 1
@E_weight = external global ptr, align 8

; Function Attrs: nounwind uwtable
define internal void @neato_init_edge(ptr noundef %0) #0 {
  %2 = alloca ptr, align 8
  store ptr %0, ptr %2, align 8, !tbaa !58
  %3 = load ptr, ptr %2, align 8, !tbaa !58
  %4 = call ptr @agbindrec(ptr noundef %3, ptr noundef @.str.35, i32 noundef 240, i32 noundef 1)
  %5 = load ptr, ptr %2, align 8, !tbaa !58
  call void @common_init_edge(ptr noundef %5)
  %6 = load ptr, ptr %2, align 8, !tbaa !58
  %7 = load ptr, ptr @E_weight, align 8, !tbaa !45
  %8 = call double @late_double(ptr noundef %6, ptr noundef %7, double noundef 1.000000e+00, double noundef 1.000000e+00)
  %9 = load ptr, ptr %2, align 8, !tbaa !58
  %10 = getelementptr inbounds nuw %struct.Agobj_s, ptr %9, i32 0, i32 1
  %11 = load ptr, ptr %10, align 8, !tbaa !8
  %12 = getelementptr inbounds nuw %struct.Agedgeinfo_t, ptr %11, i32 0, i32 15
  store double %8, ptr %12, align 8, !tbaa !150
  ret void
}

; Function Attrs: nounwind uwtable
define internal void @neato_init_node_edge(ptr noundef %0) #0 {
  %2 = alloca ptr, align 8
  %3 = alloca ptr, align 8
  %4 = alloca ptr, align 8
  %5 = alloca i32, align 4
  %6 = alloca ptr, align 8
  store ptr %0, ptr %2, align 8, !tbaa !57
  call void @llvm.lifetime.start.p0(i64 8, ptr %3) #15
  call void @llvm.lifetime.start.p0(i64 8, ptr %4) #15
  call void @llvm.lifetime.start.p0(i64 4, ptr %5) #15
  %7 = load ptr, ptr %2, align 8, !tbaa !57
  %8 = call i32 @agnnodes(ptr noundef %7)
  store i32 %8, ptr %5, align 4, !tbaa !47
  call void @llvm.lifetime.start.p0(i64 8, ptr %6) #15
  %9 = load ptr, ptr %2, align 8, !tbaa !57
  %10 = call ptr @agattr(ptr noundef %9, i32 noundef 1, ptr noundef @.str.24, ptr noundef null)
  store ptr %10, ptr @N_pos, align 8, !tbaa !45
  %11 = load ptr, ptr %2, align 8, !tbaa !57
  %12 = call ptr @agattr(ptr noundef %11, i32 noundef 1, ptr noundef @.str.34, ptr noundef null)
  store ptr %12, ptr %6, align 8, !tbaa !45
  %13 = load ptr, ptr %2, align 8, !tbaa !57
  %14 = call ptr @agfstnode(ptr noundef %13)
  store ptr %14, ptr %3, align 8, !tbaa !3
  br label %15

15:                                               ; preds = %25, %1
  %16 = load ptr, ptr %3, align 8, !tbaa !3
  %17 = icmp ne ptr %16, null
  br i1 %17, label %18, label %29

18:                                               ; preds = %15
  %19 = load ptr, ptr %3, align 8, !tbaa !3
  call void @neato_init_node(ptr noundef %19)
  %20 = load ptr, ptr @N_pos, align 8, !tbaa !45
  %21 = load ptr, ptr %6, align 8, !tbaa !45
  %22 = load ptr, ptr %3, align 8, !tbaa !3
  %23 = load i32, ptr %5, align 4, !tbaa !47
  %24 = call zeroext i1 @user_pos(ptr noundef %20, ptr noundef %21, ptr noundef %22, i32 noundef %23)
  br label %25

25:                                               ; preds = %18
  %26 = load ptr, ptr %2, align 8, !tbaa !57
  %27 = load ptr, ptr %3, align 8, !tbaa !3
  %28 = call ptr @agnxtnode(ptr noundef %26, ptr noundef %27)
  store ptr %28, ptr %3, align 8, !tbaa !3
  br label %15, !llvm.loop !147

29:                                               ; preds = %15
  %30 = load ptr, ptr %2, align 8, !tbaa !57
  %31 = call ptr @agfstnode(ptr noundef %30)
  store ptr %31, ptr %3, align 8, !tbaa !3
  br label %32

32:                                               ; preds = %49, %29
  %33 = load ptr, ptr %3, align 8, !tbaa !3
  %34 = icmp ne ptr %33, null
  br i1 %34, label %35, label %53

35:                                               ; preds = %32
  %36 = load ptr, ptr %2, align 8, !tbaa !57
  %37 = load ptr, ptr %3, align 8, !tbaa !3
  %38 = call ptr @agfstout(ptr noundef %36, ptr noundef %37)
  store ptr %38, ptr %4, align 8, !tbaa !58
  br label %39

39:                                               ; preds = %44, %35
  %40 = load ptr, ptr %4, align 8, !tbaa !58
  %41 = icmp ne ptr %40, null
  br i1 %41, label %42, label %48

42:                                               ; preds = %39
  %43 = load ptr, ptr %4, align 8, !tbaa !58
  call void @neato_init_edge(ptr noundef %43)
  br label %44

44:                                               ; preds = %42
  %45 = load ptr, ptr %2, align 8, !tbaa !57
  %46 = load ptr, ptr %4, align 8, !tbaa !58
  %47 = call ptr @agnxtout(ptr noundef %45, ptr noundef %46)
  store ptr %47, ptr %4, align 8, !tbaa !58
  br label %39, !llvm.loop !148

48:                                               ; preds = %39
  br label %49

49:                                               ; preds = %48
  %50 = load ptr, ptr %2, align 8, !tbaa !57
  %51 = load ptr, ptr %3, align 8, !tbaa !3
  %52 = call ptr @agnxtnode(ptr noundef %50, ptr noundef %51)
  store ptr %52, ptr %3, align 8, !tbaa !3
  br label %32, !llvm.loop !149

53:                                               ; preds = %32
  call void @llvm.lifetime.end.p0(i64 8, ptr %6) #15
  call void @llvm.lifetime.end.p0(i64 4, ptr %5) #15
  call void @llvm.lifetime.end.p0(i64 8, ptr %4) #15
  call void @llvm.lifetime.end.p0(i64 8, ptr %3) #15
  ret void
}

; Function Attrs: nounwind uwtable
define internal void @neato_init_graph(ptr noundef %0) #0 {
  %2 = alloca ptr, align 8
  %3 = alloca i32, align 4
  store ptr %0, ptr %2, align 8, !tbaa !57
  call void @llvm.lifetime.start.p0(i64 4, ptr %3) #15
  %4 = load ptr, ptr %2, align 8, !tbaa !57
  call void @setEdgeType(ptr noundef %4, i32 noundef 2)
  %5 = load ptr, ptr %2, align 8, !tbaa !57
  %6 = load ptr, ptr %2, align 8, !tbaa !57
  %7 = call ptr @agattr(ptr noundef %6, i32 noundef 0, ptr noundef @.str.32, ptr noundef null)
  %8 = call i32 @late_int(ptr noundef %5, ptr noundef %7, i32 noundef 2, i32 noundef 2)
  store i32 %8, ptr %3, align 4, !tbaa !47
  %9 = load ptr, ptr %2, align 8, !tbaa !57
  %10 = load ptr, ptr %2, align 8, !tbaa !57
  %11 = call ptr @agattr(ptr noundef %10, i32 noundef 0, ptr noundef @.str.33, ptr noundef null)
  %12 = load i32, ptr %3, align 4, !tbaa !47
  %13 = call i32 @late_int(ptr noundef %9, ptr noundef %11, i32 noundef %12, i32 noundef 2)
  %14 = trunc i32 %13 to i16
  %15 = load ptr, ptr %2, align 8, !tbaa !57
  %16 = call ptr @agroot(ptr noundef %15)
  %17 = getelementptr inbounds nuw %struct.Agobj_s, ptr %16, i32 0, i32 1
  %18 = load ptr, ptr %17, align 8, !tbaa !8
  %19 = getelementptr inbounds nuw %struct.Agraphinfo_t, ptr %18, i32 0, i32 22
  store i16 %14, ptr %19, align 8, !tbaa !14
  %20 = load ptr, ptr %2, align 8, !tbaa !57
  %21 = getelementptr inbounds nuw %struct.Agraph_s, ptr %20, i32 0, i32 11
  %22 = load ptr, ptr %21, align 8, !tbaa !114
  %23 = getelementptr inbounds nuw %struct.Agobj_s, ptr %22, i32 0, i32 1
  %24 = load ptr, ptr %23, align 8, !tbaa !8
  %25 = getelementptr inbounds nuw %struct.Agraphinfo_t, ptr %24, i32 0, i32 22
  %26 = load i16, ptr %25, align 8, !tbaa !14
  %27 = zext i16 %26 to i32
  %28 = icmp slt i32 %27, 10
  br i1 %28, label %29, label %38

29:                                               ; preds = %1
  %30 = load ptr, ptr %2, align 8, !tbaa !57
  %31 = getelementptr inbounds nuw %struct.Agraph_s, ptr %30, i32 0, i32 11
  %32 = load ptr, ptr %31, align 8, !tbaa !114
  %33 = getelementptr inbounds nuw %struct.Agobj_s, ptr %32, i32 0, i32 1
  %34 = load ptr, ptr %33, align 8, !tbaa !8
  %35 = getelementptr inbounds nuw %struct.Agraphinfo_t, ptr %34, i32 0, i32 22
  %36 = load i16, ptr %35, align 8, !tbaa !14
  %37 = zext i16 %36 to i32
  br label %39

38:                                               ; preds = %1
  br label %39

39:                                               ; preds = %38, %29
  %40 = phi i32 [ %37, %29 ], [ 10, %38 ]
  %41 = trunc i32 %40 to i16
  %42 = load ptr, ptr %2, align 8, !tbaa !57
  %43 = getelementptr inbounds nuw %struct.Agraph_s, ptr %42, i32 0, i32 11
  %44 = load ptr, ptr %43, align 8, !tbaa !114
  %45 = getelementptr inbounds nuw %struct.Agobj_s, ptr %44, i32 0, i32 1
  %46 = load ptr, ptr %45, align 8, !tbaa !8
  %47 = getelementptr inbounds nuw %struct.Agraphinfo_t, ptr %46, i32 0, i32 22
  store i16 %41, ptr %47, align 8, !tbaa !14
  store i16 %41, ptr @Ndim, align 2, !tbaa !51
  %48 = load i32, ptr %3, align 4, !tbaa !47
  %49 = load i16, ptr @Ndim, align 2, !tbaa !51
  %50 = zext i16 %49 to i32
  %51 = icmp slt i32 %48, %50
  br i1 %51, label %52, label %54

52:                                               ; preds = %39
  %53 = load i32, ptr %3, align 4, !tbaa !47
  br label %57

54:                                               ; preds = %39
  %55 = load i16, ptr @Ndim, align 2, !tbaa !51
  %56 = zext i16 %55 to i32
  br label %57

57:                                               ; preds = %54, %52
  %58 = phi i32 [ %53, %52 ], [ %56, %54 ]
  %59 = trunc i32 %58 to i16
  %60 = load ptr, ptr %2, align 8, !tbaa !57
  %61 = getelementptr inbounds nuw %struct.Agraph_s, ptr %60, i32 0, i32 11
  %62 = load ptr, ptr %61, align 8, !tbaa !114
  %63 = getelementptr inbounds nuw %struct.Agobj_s, ptr %62, i32 0, i32 1
  %64 = load ptr, ptr %63, align 8, !tbaa !8
  %65 = getelementptr inbounds nuw %struct.Agraphinfo_t, ptr %64, i32 0, i32 23
  store i16 %59, ptr %65, align 2, !tbaa !122
  %66 = load ptr, ptr %2, align 8, !tbaa !57
  call void @neato_init_node_edge(ptr noundef %66)
  call void @llvm.lifetime.end.p0(i64 4, ptr %3) #15
  ret void
}