; Function Attrs: nounwind uwtable
define internal fastcc void @neato_init_graph(ptr noundef %0) unnamed_addr #0 {
  tail call void @setEdgeType(ptr noundef %0, i32 noundef 2) #22
  %2 = tail call ptr @agattr(ptr noundef %0, i32 noundef 0, ptr noundef nonnull @.str.32, ptr noundef null) #22
  %3 = tail call i32 @late_int(ptr noundef %0, ptr noundef %2, i32 noundef 2, i32 noundef 2) #22
  %4 = tail call ptr @agattr(ptr noundef %0, i32 noundef 0, ptr noundef nonnull @.str.33, ptr noundef null) #22
  %5 = tail call i32 @late_int(ptr noundef %0, ptr noundef %4, i32 noundef %3, i32 noundef 2) #22
  %6 = trunc i32 %5 to i16
  %7 = tail call ptr @agroot(ptr noundef %0) #22
  %8 = getelementptr inbounds nuw i8, ptr %7, i64 16
  %9 = load ptr, ptr %8, align 8, !tbaa !3
  %10 = getelementptr inbounds nuw i8, ptr %9, i64 232
  store i16 %6, ptr %10, align 8, !tbaa !12
  %11 = getelementptr inbounds nuw i8, ptr %0, i64 120
  %12 = load ptr, ptr %11, align 8, !tbaa !122
  %13 = getelementptr inbounds nuw i8, ptr %12, i64 16
  %14 = load ptr, ptr %13, align 8, !tbaa !3
  %15 = getelementptr inbounds nuw i8, ptr %14, i64 232
  %16 = load i16, ptr %15, align 8, !tbaa !12
  %spec.select = tail call i16 @llvm.umin.i16(i16 %16, i16 10)
  store i16 %spec.select, ptr %15, align 8, !tbaa !12
  store i16 %spec.select, ptr @Ndim, align 2, !tbaa !43
  %17 = zext nneg i16 %spec.select to i32
  %18 = tail call i32 @llvm.smin.i32(i32 %3, i32 %17)
  %19 = trunc i32 %18 to i16
  %20 = getelementptr inbounds nuw i8, ptr %14, i64 234
  store i16 %19, ptr %20, align 2, !tbaa !128
  %21 = tail call i32 @agnnodes(ptr noundef %0) #22
  %22 = tail call ptr @agattr(ptr noundef %0, i32 noundef 1, ptr noundef nonnull @.str.24, ptr noundef null) #22
  store ptr %22, ptr @N_pos, align 8, !tbaa !49
  %23 = tail call ptr @agattr(ptr noundef %0, i32 noundef 1, ptr noundef nonnull @.str.34, ptr noundef null) #22
  %24 = tail call ptr @agfstnode(ptr noundef %0) #22
  %.not23.i = icmp eq ptr %24, null
  br i1 %.not23.i, label %._crit_edge.i, label %.lr.ph.i

.lr.ph.i:                                         ; preds = %1, %.lr.ph.i
  %.024.i = phi ptr [ %27, %.lr.ph.i ], [ %24, %1 ]
  tail call void @neato_init_node(ptr noundef nonnull %.024.i)
  %25 = load ptr, ptr @N_pos, align 8, !tbaa !49
  %26 = tail call zeroext i1 @user_pos(ptr noundef %25, ptr noundef %23, ptr noundef nonnull %.024.i, i32 noundef %21)
  %27 = tail call ptr @agnxtnode(ptr noundef %0, ptr noundef nonnull %.024.i) #22
  %.not.i = icmp eq ptr %27, null
  br i1 %.not.i, label %._crit_edge.i, label %.lr.ph.i, !llvm.loop !129

._crit_edge.i:                                    ; preds = %.lr.ph.i, %1
  %28 = tail call ptr @agfstnode(ptr noundef %0) #22
  %.not2130.i = icmp eq ptr %28, null
  br i1 %.not2130.i, label %neato_init_node_edge.exit, label %.lr.ph33.i

.lr.ph33.i:                                       ; preds = %._crit_edge.i, %._crit_edge29.i
  %.131.i = phi ptr [ %37, %._crit_edge29.i ], [ %28, %._crit_edge.i ]
  %29 = tail call ptr @agfstout(ptr noundef %0, ptr noundef nonnull %.131.i) #22
  %.not2225.i = icmp eq ptr %29, null
  br i1 %.not2225.i, label %._crit_edge29.i, label %.lr.ph28.i

.lr.ph28.i:                                       ; preds = %.lr.ph33.i, %.lr.ph28.i
  %.02026.i = phi ptr [ %36, %.lr.ph28.i ], [ %29, %.lr.ph33.i ]
  %30 = tail call ptr @agbindrec(ptr noundef nonnull %.02026.i, ptr noundef nonnull @.str.35, i32 noundef 240, i32 noundef 1) #22
  tail call void @common_init_edge(ptr noundef nonnull %.02026.i) #22
  %31 = load ptr, ptr @E_weight, align 8, !tbaa !49
  %32 = tail call double @late_double(ptr noundef nonnull %.02026.i, ptr noundef %31, double noundef 1.000000e+00, double noundef 1.000000e+00) #22
  %33 = getelementptr inbounds nuw i8, ptr %.02026.i, i64 16
  %34 = load ptr, ptr %33, align 8, !tbaa !3
  %35 = getelementptr inbounds nuw i8, ptr %34, i64 176
  store double %32, ptr %35, align 8, !tbaa !130
  %36 = tail call ptr @agnxtout(ptr noundef %0, ptr noundef nonnull %.02026.i) #22
  %.not22.i = icmp eq ptr %36, null
  br i1 %.not22.i, label %._crit_edge29.i, label %.lr.ph28.i, !llvm.loop !131

._crit_edge29.i:                                  ; preds = %.lr.ph28.i, %.lr.ph33.i
  %37 = tail call ptr @agnxtnode(ptr noundef %0, ptr noundef nonnull %.131.i) #22
  %.not21.i = icmp eq ptr %37, null
  br i1 %.not21.i, label %neato_init_node_edge.exit, label %.lr.ph33.i, !llvm.loop !132

neato_init_node_edge.exit:                        ; preds = %._crit_edge29.i, %._crit_edge.i
  ret void
}